target datalayout = "e-m:e-p270:32:32-p271:32:32-p272:64:64-i64:64-i128:128-f80:128-n8:16:32:64-S128"
target triple = "x86_64-pc-linux-gnu"

%struct.expert_field = type { i32, i32 }
%struct._packet_info = type { ptr, ptr, i32, i32, %struct.nstime_t, %struct.nstime_t, %struct.nstime_t, i8, ptr, ptr, ptr, ptr, %struct._address, %struct._address, %struct._address, %struct._address, %struct._address, %struct._address, i32, ptr, i8, [3 x i8], %struct.anon, i32, i32, i32, i32, ptr, i8, ptr, ptr, i16, i16, i32, i32, i16, i32, i32, ptr, ptr, ptr, i8, i8, i16, i16, i16, i32, i16, i16, ptr, ptr, ptr, ptr, ptr, i32, i32 }
%struct.nstime_t = type { i64, i32 }
%struct._address = type { i32, i32, ptr, ptr }
%struct.anon = type { i8, [3 x i8] }

@hf_docsis_map_ucd_count = internal global i32 0, align 4
@hf_docsis_map_numie = internal global i32 0, align 4
@hf_docsis_map_numie_v5 = internal global i32 0, align 4
@hf_docsis_map_rsvd_v5 = internal global i32 0, align 4
@hf_docsis_map_cat = internal global i32 0, align 4
@hf_docsis_map_alloc_start = internal global i32 0, align 4
@hf_docsis_map_ack_time = internal global i32 0, align 4
@hf_docsis_map_rng_start = internal global i32 0, align 4
@hf_docsis_map_rng_end = internal global i32 0, align 4
@hf_docsis_map_data_start = internal global i32 0, align 4
@hf_docsis_map_data_end = internal global i32 0, align 4
@hf_docsis_map_ie = internal global i32 0, align 4
@hf_docsis_map_probe_ie = internal global i32 0, align 4
@hf_docsis_map_rsvd = internal global i32 0, align 4
@hf_docsis_mgt_upstream_chid = internal global i32 0, align 4
@ett_docsis_map = internal global i32 0, align 4
@ett_docsis_map_ie = internal global i32 0, align 4
@ett_docsis_map_probe_ie = internal global i32 0, align 4
@ei_docsis_mgmt_version_unknown = internal global %struct.expert_field zeroinitializer, align 4
@proto_docsis_map_v1 = internal global i32 0, align 4
@proto_docsis_map_v5 = internal global i32 0, align 4
@dissect_any_map.ies = internal constant [4 x ptr] [ptr @hf_docsis_map_sid, ptr @hf_docsis_map_iuc, ptr @hf_docsis_map_offset, ptr null], align 16
@.str.2148 = private unnamed_addr constant [39 x i8] c"Unknown MAP MAC Management version: %u\00", align 1
@.str.2149 = private unnamed_addr constant [79 x i8] c"Map Message:  Version: %d, Channel ID = %u (U%u), UCD Count = %u,  # IE's = %u\00", align 1
@.str.2150 = private unnamed_addr constant [91 x i8] c"Map Message:  Version: %d, Channel ID = %u (Telephony Return), UCD Count = %u, # IE's = %u\00", align 1

; Function Attrs: null_pointer_is_valid sspstrong uwtable
define internal i32 @dissect_any_map(ptr noundef %0, ptr noundef %1, ptr noundef %2, i8 noundef zeroext %3, ptr noundef %4) #0 {
  %6 = alloca i32, align 4
  %7 = alloca ptr, align 8
  %8 = alloca ptr, align 8
  %9 = alloca ptr, align 8
  %10 = alloca i8, align 1
  %11 = alloca ptr, align 8
  %12 = alloca i32, align 4
  %13 = alloca i32, align 4
  %14 = alloca i32, align 4
  %15 = alloca i32, align 4
  %16 = alloca i32, align 4
  %17 = alloca i32, align 4
  %18 = alloca i32, align 4
  %19 = alloca ptr, align 8
  %20 = alloca ptr, align 8
  %21 = alloca i32, align 4
  store ptr %0, ptr %7, align 8
  store ptr %1, ptr %8, align 8
  store ptr %2, ptr %9, align 8
  store i8 %3, ptr %10, align 1
  store ptr %4, ptr %11, align 8
  call void @llvm.lifetime.start.p0(i64 4, ptr %12) #6
  call void @llvm.lifetime.start.p0(i64 4, ptr %13) #6
  call void @llvm.lifetime.start.p0(i64 4, ptr %14) #6
  call void @llvm.lifetime.start.p0(i64 4, ptr %15) #6
  call void @llvm.lifetime.start.p0(i64 4, ptr %16) #6
  store i32 0, ptr %16, align 4
  call void @llvm.lifetime.start.p0(i64 4, ptr %17) #6
  call void @llvm.lifetime.start.p0(i64 4, ptr %18) #6
  call void @llvm.lifetime.start.p0(i64 8, ptr %19) #6
  call void @llvm.lifetime.start.p0(i64 8, ptr %20) #6
  %22 = load i8, ptr %10, align 1
  %23 = zext i8 %22 to i32
  switch i32 %23, label %34 [
    i32 1, label %24
    i32 5, label %29
  ]

24:                                               ; preds = %5
  %25 = load ptr, ptr %9, align 8
  %26 = load i32, ptr @proto_docsis_map_v1, align 4
  %27 = load ptr, ptr %7, align 8
  %28 = call ptr @proto_tree_add_item(ptr noundef %25, i32 noundef %26, ptr noundef %27, i32 noundef 0, i32 noundef -1, i32 noundef 0)
  store ptr %28, ptr %19, align 8
  br label %46

29:                                               ; preds = %5
  %30 = load ptr, ptr %9, align 8
  %31 = load i32, ptr @proto_docsis_map_v5, align 4
  %32 = load ptr, ptr %7, align 8
  %33 = call ptr @proto_tree_add_item(ptr noundef %30, i32 noundef %31, ptr noundef %32, i32 noundef 0, i32 noundef -1, i32 noundef 0)
  store ptr %33, ptr %19, align 8
  br label %46

34:                                               ; preds = %5
  %35 = load ptr, ptr %9, align 8
  %36 = load i32, ptr @proto_docsis_map_v1, align 4
  %37 = load ptr, ptr %7, align 8
  %38 = call ptr @proto_tree_add_item(ptr noundef %35, i32 noundef %36, ptr noundef %37, i32 noundef 0, i32 noundef -1, i32 noundef 0)
  store ptr %38, ptr %19, align 8
  %39 = load ptr, ptr %8, align 8
  %40 = load ptr, ptr %19, align 8
  %41 = load i8, ptr %10, align 1
  %42 = zext i8 %41 to i32
  %43 = call ptr (ptr, ptr, ptr, ptr, ...) @expert_add_info_format(ptr noundef %39, ptr noundef %40, ptr noundef @ei_docsis_mgmt_version_unknown, ptr noundef @.str.2148, i32 noundef %42)
  %44 = load ptr, ptr %7, align 8
  %45 = call i32 @tvb_captured_length(ptr noundef %44)
  store i32 %45, ptr %6, align 4
  store i32 1, ptr %21, align 4
  br label %201

46:                                               ; preds = %29, %24
  %47 = load ptr, ptr %19, align 8
  %48 = load i32, ptr @ett_docsis_map, align 4
  %49 = call ptr @proto_item_add_subtree(ptr noundef %47, i32 noundef %48)
  store ptr %49, ptr %20, align 8
  %50 = load ptr, ptr %20, align 8
  %51 = load i32, ptr @hf_docsis_mgt_upstream_chid, align 4
  %52 = load ptr, ptr %7, align 8
  %53 = call ptr @proto_tree_add_item_ret_uint(ptr noundef %50, i32 noundef %51, ptr noundef %52, i32 noundef 0, i32 noundef 1, i32 noundef 0, ptr noundef %14)
  %54 = load ptr, ptr %20, align 8
  %55 = load i32, ptr @hf_docsis_map_ucd_count, align 4
  %56 = load ptr, ptr %7, align 8
  %57 = call ptr @proto_tree_add_item_ret_uint(ptr noundef %54, i32 noundef %55, ptr noundef %56, i32 noundef 1, i32 noundef 1, i32 noundef 0, ptr noundef %15)
  %58 = load i8, ptr %10, align 1
  %59 = zext i8 %58 to i32
  switch i32 %59, label %82 [
    i32 1, label %60
    i32 5, label %69
  ]

60:                                               ; preds = %46
  %61 = load ptr, ptr %20, align 8
  %62 = load i32, ptr @hf_docsis_map_numie, align 4
  %63 = load ptr, ptr %7, align 8
  %64 = call ptr @proto_tree_add_item_ret_uint(ptr noundef %61, i32 noundef %62, ptr noundef %63, i32 noundef 2, i32 noundef 1, i32 noundef 0, ptr noundef %13)
  %65 = load ptr, ptr %20, align 8
  %66 = load i32, ptr @hf_docsis_map_rsvd, align 4
  %67 = load ptr, ptr %7, align 8
  %68 = call ptr @proto_tree_add_item(ptr noundef %65, i32 noundef %66, ptr noundef %67, i32 noundef 3, i32 noundef 1, i32 noundef 0)
  br label %94

69:                                               ; preds = %46
  %70 = load ptr, ptr %20, align 8
  %71 = load i32, ptr @hf_docsis_map_numie_v5, align 4
  %72 = load ptr, ptr %7, align 8
  %73 = call ptr @proto_tree_add_item_ret_uint(ptr noundef %70, i32 noundef %71, ptr noundef %72, i32 noundef 2, i32 noundef 2, i32 noundef 0, ptr noundef %13)
  %74 = load ptr, ptr %20, align 8
  %75 = load i32, ptr @hf_docsis_map_rsvd_v5, align 4
  %76 = load ptr, ptr %7, align 8
  %77 = call ptr @proto_tree_add_item(ptr noundef %74, i32 noundef %75, ptr noundef %76, i32 noundef 3, i32 noundef 1, i32 noundef 0)
  %78 = load ptr, ptr %20, align 8
  %79 = load i32, ptr @hf_docsis_map_cat, align 4
  %80 = load ptr, ptr %7, align 8
  %81 = call ptr @proto_tree_add_item_ret_uint(ptr noundef %78, i32 noundef %79, ptr noundef %80, i32 noundef 3, i32 noundef 1, i32 noundef 0, ptr noundef %16)
  br label %94

82:                                               ; preds = %46
  %83 = load ptr, ptr %9, align 8
  %84 = load i32, ptr @proto_docsis_map_v1, align 4
  %85 = load ptr, ptr %7, align 8
  %86 = call ptr @proto_tree_add_item(ptr noundef %83, i32 noundef %84, ptr noundef %85, i32 noundef 0, i32 noundef -1, i32 noundef 0)
  store ptr %86, ptr %19, align 8
  %87 = load ptr, ptr %8, align 8
  %88 = load ptr, ptr %19, align 8
  %89 = load i8, ptr %10, align 1
  %90 = zext i8 %89 to i32
  %91 = call ptr (ptr, ptr, ptr, ptr, ...) @expert_add_info_format(ptr noundef %87, ptr noundef %88, ptr noundef @ei_docsis_mgmt_version_unknown, ptr noundef @.str.2148, i32 noundef %90)
  %92 = load ptr, ptr %7, align 8
  %93 = call i32 @tvb_captured_length(ptr noundef %92)
  store i32 %93, ptr %6, align 4
  store i32 1, ptr %21, align 4
  br label %201

94:                                               ; preds = %69, %60
  %95 = load i32, ptr %14, align 4
  %96 = icmp ugt i32 %95, 0
  br i1 %96, label %97, label %108

97:                                               ; preds = %94
  %98 = load ptr, ptr %8, align 8
  %99 = getelementptr inbounds nuw %struct._packet_info, ptr %98, i32 0, i32 1
  %100 = load ptr, ptr %99, align 8
  %101 = load i8, ptr %10, align 1
  %102 = zext i8 %101 to i32
  %103 = load i32, ptr %14, align 4
  %104 = load i32, ptr %14, align 4
  %105 = sub i32 %104, 1
  %106 = load i32, ptr %15, align 4
  %107 = load i32, ptr %13, align 4
  call void (ptr, i32, ptr, ...) @col_add_fstr(ptr noundef %100, i32 noundef 25, ptr noundef @.str.2149, i32 noundef %102, i32 noundef %103, i32 noundef %105, i32 noundef %106, i32 noundef %107)
  br label %117

108:                                              ; preds = %94
  %109 = load ptr, ptr %8, align 8
  %110 = getelementptr inbounds nuw %struct._packet_info, ptr %109, i32 0, i32 1
  %111 = load ptr, ptr %110, align 8
  %112 = load i8, ptr %10, align 1
  %113 = zext i8 %112 to i32
  %114 = load i32, ptr %14, align 4
  %115 = load i32, ptr %15, align 4
  %116 = load i32, ptr %13, align 4
  call void (ptr, i32, ptr, ...) @col_add_fstr(ptr noundef %111, i32 noundef 25, ptr noundef @.str.2150, i32 noundef %113, i32 noundef %114, i32 noundef %115, i32 noundef %116)
  br label %117

117:                                              ; preds = %108, %97
  %118 = load ptr, ptr %20, align 8
  %119 = load i32, ptr @hf_docsis_map_alloc_start, align 4
  %120 = load ptr, ptr %7, align 8
  %121 = call ptr @proto_tree_add_item(ptr noundef %118, i32 noundef %119, ptr noundef %120, i32 noundef 4, i32 noundef 4, i32 noundef 0)
  %122 = load i32, ptr %16, align 4
  %123 = icmp eq i32 %122, 0
  br i1 %123, label %124, label %162

124:                                              ; preds = %117
  %125 = load ptr, ptr %20, align 8
  %126 = load i32, ptr @hf_docsis_map_ack_time, align 4
  %127 = load ptr, ptr %7, align 8
  %128 = call ptr @proto_tree_add_item(ptr noundef %125, i32 noundef %126, ptr noundef %127, i32 noundef 8, i32 noundef 4, i32 noundef 0)
  %129 = load ptr, ptr %20, align 8
  %130 = load i32, ptr @hf_docsis_map_rng_start, align 4
  %131 = load ptr, ptr %7, align 8
  %132 = call ptr @proto_tree_add_item(ptr noundef %129, i32 noundef %130, ptr noundef %131, i32 noundef 12, i32 noundef 1, i32 noundef 0)
  %133 = load ptr, ptr %20, align 8
  %134 = load i32, ptr @hf_docsis_map_rng_end, align 4
  %135 = load ptr, ptr %7, align 8
  %136 = call ptr @proto_tree_add_item(ptr noundef %133, i32 noundef %134, ptr noundef %135, i32 noundef 13, i32 noundef 1, i32 noundef 0)
  %137 = load ptr, ptr %20, align 8
  %138 = load i32, ptr @hf_docsis_map_data_start, align 4
  %139 = load ptr, ptr %7, align 8
  %140 = call ptr @proto_tree_add_item(ptr noundef %137, i32 noundef %138, ptr noundef %139, i32 noundef 14, i32 noundef 1, i32 noundef 0)
  %141 = load ptr, ptr %20, align 8
  %142 = load i32, ptr @hf_docsis_map_data_end, align 4
  %143 = load ptr, ptr %7, align 8
  %144 = call ptr @proto_tree_add_item(ptr noundef %141, i32 noundef %142, ptr noundef %143, i32 noundef 15, i32 noundef 1, i32 noundef 0)
  store i32 16, ptr %18, align 4
  store i32 0, ptr %12, align 4
  br label %145

145:                                              ; preds = %158, %124
  %146 = load i32, ptr %12, align 4
  %147 = load i32, ptr %13, align 4
  %148 = icmp ult i32 %146, %147
  br i1 %148, label %149, label %161

149:                                              ; preds = %145
  %150 = load ptr, ptr %20, align 8
  %151 = load ptr, ptr %7, align 8
  %152 = load i32, ptr %18, align 4
  %153 = load i32, ptr @hf_docsis_map_ie, align 4
  %154 = load i32, ptr @ett_docsis_map_ie, align 4
  %155 = call ptr @proto_tree_add_bitmask_with_flags(ptr noundef %150, ptr noundef %151, i32 noundef %152, i32 noundef %153, i32 noundef %154, ptr noundef @dissect_any_map.ies, i32 noundef 0, i32 noundef 0)
  %156 = load i32, ptr %18, align 4
  %157 = add i32 %156, 4
  store i32 %157, ptr %18, align 4
  br label %158

158:                                              ; preds = %149
  %159 = load i32, ptr %12, align 4
  %160 = add i32 %159, 1
  store i32 %160, ptr %12, align 4
  br label %145, !llvm.loop !20

161:                                              ; preds = %145
  br label %162

162:                                              ; preds = %161, %117
  %163 = load i32, ptr %16, align 4
  %164 = icmp eq i32 %163, 1
  br i1 %164, label %165, label %198

165:                                              ; preds = %162
  store i32 8, ptr %18, align 4
  store i32 0, ptr %12, align 4
  br label %166

166:                                              ; preds = %194, %165
  %167 = load i32, ptr %12, align 4
  %168 = load i32, ptr %13, align 4
  %169 = icmp ult i32 %167, %168
  br i1 %169, label %170, label %197

170:                                              ; preds = %166
  %171 = load ptr, ptr %7, align 8
  %172 = load i32, ptr %18, align 4
  %173 = call i32 @tvb_get_uint32(ptr noundef %171, i32 noundef %172, i32 noundef 0)
  store i32 %173, ptr %17, align 4
  %174 = load i32, ptr %17, align 4
  %175 = and i32 %174, 81920
  %176 = icmp eq i32 %175, 0
  br i1 %176, label %177, label %184

177:                                              ; preds = %170
  %178 = load ptr, ptr %20, align 8
  %179 = load ptr, ptr %7, align 8
  %180 = load i32, ptr %18, align 4
  %181 = load i32, ptr @hf_docsis_map_probe_ie, align 4
  %182 = load i32, ptr @ett_docsis_map_probe_ie, align 4
  %183 = call ptr @proto_tree_add_bitmask_with_flags(ptr noundef %178, ptr noundef %179, i32 noundef %180, i32 noundef %181, i32 noundef %182, ptr noundef @dissect_any_map.probe_ies_ect, i32 noundef 0, i32 noundef 0)
  br label %191

184:                                              ; preds = %170
  %185 = load ptr, ptr %20, align 8
  %186 = load ptr, ptr %7, align 8
  %187 = load i32, ptr %18, align 4
  %188 = load i32, ptr @hf_docsis_map_probe_ie, align 4
  %189 = load i32, ptr @ett_docsis_map_probe_ie, align 4
  %190 = call ptr @proto_tree_add_bitmask_with_flags(ptr noundef %185, ptr noundef %186, i32 noundef %187, i32 noundef %188, i32 noundef %189, ptr noundef @dissect_any_map.probe_ies, i32 noundef 0, i32 noundef 0)
  br label %191

191:                                              ; preds = %184, %177
  %192 = load i32, ptr %18, align 4
  %193 = add i32 %192, 4
  store i32 %193, ptr %18, align 4
  br label %194

194:                                              ; preds = %191
  %195 = load i32, ptr %12, align 4
  %196 = add i32 %195, 1
  store i32 %196, ptr %12, align 4
  br label %166, !llvm.loop !21

197:                                              ; preds = %166
  br label %198

198:                                              ; preds = %197, %162
  %199 = load ptr, ptr %7, align 8
  %200 = call i32 @tvb_captured_length(ptr noundef %199)
  store i32 %200, ptr %6, align 4
  store i32 1, ptr %21, align 4
  br label %201

201:                                              ; preds = %198, %82, %34
  call void @llvm.lifetime.end.p0(i64 8, ptr %20) #6
  call void @llvm.lifetime.end.p0(i64 8, ptr %19) #6
  call void @llvm.lifetime.end.p0(i64 4, ptr %18) #6
  call void @llvm.lifetime.end.p0(i64 4, ptr %17) #6
  call void @llvm.lifetime.end.p0(i64 4, ptr %16) #6
  call void @llvm.lifetime.end.p0(i64 4, ptr %15) #6
  call void @llvm.lifetime.end.p0(i64 4, ptr %14) #6
  call void @llvm.lifetime.end.p0(i64 4, ptr %13) #6
  call void @llvm.lifetime.end.p0(i64 4, ptr %12) #6
  %202 = load i32, ptr %6, align 4
  ret i32 %202
}