; Function Attrs: null_pointer_is_valid sspstrong uwtable
define internal fastcc i32 @dissect_any_map(ptr noundef %0, ptr noundef %1, ptr noundef %2, i8 noundef zeroext range(i8 1, 6) %3) unnamed_addr #0 {
  %5 = alloca i32, align 4
  %6 = alloca i32, align 4
  %7 = alloca i32, align 4
  %8 = alloca i32, align 4
  call void @llvm.lifetime.start.p0(i64 4, ptr nonnull %5) #6
  call void @llvm.lifetime.start.p0(i64 4, ptr nonnull %6) #6
  call void @llvm.lifetime.start.p0(i64 4, ptr nonnull %7) #6
  call void @llvm.lifetime.start.p0(i64 4, ptr nonnull %8) #6
  store i32 0, ptr %8, align 4
  %9 = zext nneg i8 %3 to i32
  switch i8 %3, label %11 [
    i8 1, label %16
    i8 5, label %10
  ]

10:                                               ; preds = %4
  br label %16

11:                                               ; preds = %4
  %12 = load i32, ptr @proto_docsis_map_v1, align 4
  %13 = tail call ptr @proto_tree_add_item(ptr noundef %2, i32 noundef %12, ptr noundef %0, i32 noundef 0, i32 noundef -1, i32 noundef 0)
  %14 = tail call ptr (ptr, ptr, ptr, ptr, ...) @expert_add_info_format(ptr noundef %1, ptr noundef %13, ptr noundef nonnull @ei_docsis_mgmt_version_unknown, ptr noundef nonnull @.str.2148, i32 noundef %9)
  %15 = tail call i32 @tvb_captured_length(ptr noundef %0)
  br label %94

16:                                               ; preds = %4, %10
  %proto_docsis_map_v5.sink = phi ptr [ @proto_docsis_map_v5, %10 ], [ @proto_docsis_map_v1, %4 ]
  %17 = load i32, ptr %proto_docsis_map_v5.sink, align 4
  %18 = tail call ptr @proto_tree_add_item(ptr noundef %2, i32 noundef %17, ptr noundef %0, i32 noundef 0, i32 noundef -1, i32 noundef 0)
  %19 = load i32, ptr @ett_docsis_map, align 4
  %20 = tail call ptr @proto_item_add_subtree(ptr noundef %18, i32 noundef %19)
  %21 = load i32, ptr @hf_docsis_mgt_upstream_chid, align 4
  %22 = call ptr @proto_tree_add_item_ret_uint(ptr noundef %20, i32 noundef %21, ptr noundef %0, i32 noundef 0, i32 noundef 1, i32 noundef 0, ptr noundef nonnull %6)
  %23 = load i32, ptr @hf_docsis_map_ucd_count, align 4
  %24 = call ptr @proto_tree_add_item_ret_uint(ptr noundef %20, i32 noundef %23, ptr noundef %0, i32 noundef 1, i32 noundef 1, i32 noundef 0, ptr noundef nonnull %7)
  switch i8 %3, label %37 [
    i8 1, label %25
    i8 5, label %30
  ]

25:                                               ; preds = %16
  %26 = load i32, ptr @hf_docsis_map_numie, align 4
  %27 = call ptr @proto_tree_add_item_ret_uint(ptr noundef %20, i32 noundef %26, ptr noundef %0, i32 noundef 2, i32 noundef 1, i32 noundef 0, ptr noundef nonnull %5)
  %28 = load i32, ptr @hf_docsis_map_rsvd, align 4
  %29 = call ptr @proto_tree_add_item(ptr noundef %20, i32 noundef %28, ptr noundef %0, i32 noundef 3, i32 noundef 1, i32 noundef 0)
  br label %42

30:                                               ; preds = %16
  %31 = load i32, ptr @hf_docsis_map_numie_v5, align 4
  %32 = call ptr @proto_tree_add_item_ret_uint(ptr noundef %20, i32 noundef %31, ptr noundef %0, i32 noundef 2, i32 noundef 2, i32 noundef 0, ptr noundef nonnull %5)
  %33 = load i32, ptr @hf_docsis_map_rsvd_v5, align 4
  %34 = call ptr @proto_tree_add_item(ptr noundef %20, i32 noundef %33, ptr noundef %0, i32 noundef 3, i32 noundef 1, i32 noundef 0)
  %35 = load i32, ptr @hf_docsis_map_cat, align 4
  %36 = call ptr @proto_tree_add_item_ret_uint(ptr noundef %20, i32 noundef %35, ptr noundef %0, i32 noundef 3, i32 noundef 1, i32 noundef 0, ptr noundef nonnull %8)
  br label %42

37:                                               ; preds = %16
  %38 = load i32, ptr @proto_docsis_map_v1, align 4
  %39 = call ptr @proto_tree_add_item(ptr noundef %2, i32 noundef %38, ptr noundef %0, i32 noundef 0, i32 noundef -1, i32 noundef 0)
  %40 = call ptr (ptr, ptr, ptr, ptr, ...) @expert_add_info_format(ptr noundef %1, ptr noundef %39, ptr noundef nonnull @ei_docsis_mgmt_version_unknown, ptr noundef nonnull @.str.2148, i32 noundef %9)
  %41 = call i32 @tvb_captured_length(ptr noundef %0)
  br label %94

42:                                               ; preds = %30, %25
  %43 = load i32, ptr %6, align 4
  %.not = icmp eq i32 %43, 0
  %44 = getelementptr inbounds nuw i8, ptr %1, i64 8
  %45 = load ptr, ptr %44, align 8
  br i1 %.not, label %50, label %46

46:                                               ; preds = %42
  %47 = add i32 %43, -1
  %48 = load i32, ptr %7, align 4
  %49 = load i32, ptr %5, align 4
  call void (ptr, i32, ptr, ...) @col_add_fstr(ptr noundef %45, i32 noundef 25, ptr noundef nonnull @.str.2149, i32 noundef %9, i32 noundef %43, i32 noundef %47, i32 noundef %48, i32 noundef %49)
  br label %53

50:                                               ; preds = %42
  %51 = load i32, ptr %7, align 4
  %52 = load i32, ptr %5, align 4
  call void (ptr, i32, ptr, ...) @col_add_fstr(ptr noundef %45, i32 noundef 25, ptr noundef nonnull @.str.2150, i32 noundef %9, i32 noundef 0, i32 noundef %51, i32 noundef %52)
  br label %53

53:                                               ; preds = %50, %46
  %54 = load i32, ptr @hf_docsis_map_alloc_start, align 4
  %55 = call ptr @proto_tree_add_item(ptr noundef %20, i32 noundef %54, ptr noundef %0, i32 noundef 4, i32 noundef 4, i32 noundef 0)
  %56 = load i32, ptr %8, align 4
  %57 = icmp eq i32 %56, 0
  br i1 %57, label %58, label %._crit_edge

._crit_edge:                                      ; preds = %53
  %.pre = load i32, ptr %5, align 4
  br label %78

58:                                               ; preds = %53
  %59 = load i32, ptr @hf_docsis_map_ack_time, align 4
  %60 = call ptr @proto_tree_add_item(ptr noundef %20, i32 noundef %59, ptr noundef %0, i32 noundef 8, i32 noundef 4, i32 noundef 0)
  %61 = load i32, ptr @hf_docsis_map_rng_start, align 4
  %62 = call ptr @proto_tree_add_item(ptr noundef %20, i32 noundef %61, ptr noundef %0, i32 noundef 12, i32 noundef 1, i32 noundef 0)
  %63 = load i32, ptr @hf_docsis_map_rng_end, align 4
  %64 = call ptr @proto_tree_add_item(ptr noundef %20, i32 noundef %63, ptr noundef %0, i32 noundef 13, i32 noundef 1, i32 noundef 0)
  %65 = load i32, ptr @hf_docsis_map_data_start, align 4
  %66 = call ptr @proto_tree_add_item(ptr noundef %20, i32 noundef %65, ptr noundef %0, i32 noundef 14, i32 noundef 1, i32 noundef 0)
  %67 = load i32, ptr @hf_docsis_map_data_end, align 4
  %68 = call ptr @proto_tree_add_item(ptr noundef %20, i32 noundef %67, ptr noundef %0, i32 noundef 15, i32 noundef 1, i32 noundef 0)
  %69 = load i32, ptr %5, align 4
  %.not7 = icmp eq i32 %69, 0
  br i1 %.not7, label %thread-pre-split, label %.lr.ph

.lr.ph:                                           ; preds = %58, %.lr.ph
  %.0692 = phi i32 [ %73, %.lr.ph ], [ 16, %58 ]
  %.0701 = phi i32 [ %74, %.lr.ph ], [ 0, %58 ]
  %70 = load i32, ptr @hf_docsis_map_ie, align 4
  %71 = load i32, ptr @ett_docsis_map_ie, align 4
  %72 = call ptr @proto_tree_add_bitmask_with_flags(ptr noundef %20, ptr noundef %0, i32 noundef %.0692, i32 noundef %70, i32 noundef %71, ptr noundef nonnull @dissect_any_map.ies, i32 noundef 0, i32 noundef 0)
  %73 = add i32 %.0692, 4
  %74 = add nuw i32 %.0701, 1
  %75 = load i32, ptr %5, align 4
  %76 = icmp ult i32 %74, %75
  br i1 %76, label %.lr.ph, label %thread-pre-split, !llvm.loop !60

thread-pre-split:                                 ; preds = %.lr.ph, %58
  %77 = phi i32 [ 0, %58 ], [ %75, %.lr.ph ]
  %.pr = load i32, ptr %8, align 4
  br label %78

78:                                               ; preds = %._crit_edge, %thread-pre-split
  %79 = phi i32 [ %77, %thread-pre-split ], [ %.pre, %._crit_edge ]
  %80 = phi i32 [ %.pr, %thread-pre-split ], [ %56, %._crit_edge ]
  %81 = icmp eq i32 %80, 1
  %82 = icmp ne i32 %79, 0
  %or.cond = select i1 %81, i1 %82, i1 false
  br i1 %or.cond, label %.lr.ph5, label %.loopexit

.lr.ph5:                                          ; preds = %78, %.lr.ph5
  %.14 = phi i32 [ %89, %.lr.ph5 ], [ 8, %78 ]
  %.1713 = phi i32 [ %90, %.lr.ph5 ], [ 0, %78 ]
  %83 = call i32 @tvb_get_uint32(ptr noundef %0, i32 noundef %.14, i32 noundef 0)
  %84 = and i32 %83, 81920
  %85 = icmp eq i32 %84, 0
  %86 = load i32, ptr @hf_docsis_map_probe_ie, align 4
  %87 = load i32, ptr @ett_docsis_map_probe_ie, align 4
  %dissect_any_map.probe_ies_ect.dissect_any_map.probe_ies = select i1 %85, ptr @dissect_any_map.probe_ies_ect, ptr @dissect_any_map.probe_ies
  %88 = call ptr @proto_tree_add_bitmask_with_flags(ptr noundef %20, ptr noundef %0, i32 noundef %.14, i32 noundef %86, i32 noundef %87, ptr noundef nonnull %dissect_any_map.probe_ies_ect.dissect_any_map.probe_ies, i32 noundef 0, i32 noundef 0)
  %89 = add i32 %.14, 4
  %90 = add nuw i32 %.1713, 1
  %91 = load i32, ptr %5, align 4
  %92 = icmp ult i32 %90, %91
  br i1 %92, label %.lr.ph5, label %.loopexit, !llvm.loop !61

.loopexit:                                        ; preds = %.lr.ph5, %78
  %93 = call i32 @tvb_captured_length(ptr noundef %0)
  br label %94

94:                                               ; preds = %.loopexit, %37, %11
  %.0 = phi i32 [ %15, %11 ], [ %41, %37 ], [ %93, %.loopexit ]
  call void @llvm.lifetime.end.p0(i64 4, ptr nonnull %8) #6
  call void @llvm.lifetime.end.p0(i64 4, ptr nonnull %7) #6
  call void @llvm.lifetime.end.p0(i64 4, ptr nonnull %6) #6
  call void @llvm.lifetime.end.p0(i64 4, ptr nonnull %5) #6
  ret i32 %.0
}